; ModuleID = '39/329.c'
source_filename = "39/329.c"
target datalayout = "e-m:e-p270:32:32-p271:32:32-p272:64:64-i64:64-f80:128-n8:16:32:64-S128"
target triple = "x86_64-pc-linux-gnu"

%struct.student = type { [30 x i8], i32 }

@.str = private unnamed_addr constant [3 x i8] c"%d\00", align 1
@.str.1 = private unnamed_addr constant [18 x i8] c"%s %d %d %c %c %d\00", align 1
@stu = common dso_local global [999 x %struct.student] zeroinitializer, align 16
@.str.2 = private unnamed_addr constant [9 x i8] c"%s\0A%d\0A%d\00", align 1

; Function Attrs: noinline nounwind uwtable
define dso_local void @main() #0 {
  %1 = alloca i32, align 4
  %2 = alloca i32, align 4
  %3 = alloca i32, align 4
  %4 = alloca i32, align 4
  %5 = alloca i32, align 4
  %6 = alloca i32, align 4
  %7 = alloca i32, align 4
  %8 = alloca i8, align 1
  %9 = alloca i8, align 1
  %10 = alloca i8*, align 8
  store i32 0, i32* %3, align 4
  store i32 0, i32* %4, align 4
  %11 = call i32 (i8*, ...) @__isoc99_scanf(i8* getelementptr inbounds ([3 x i8], [3 x i8]* @.str, i64 0, i64 0), i32* %1)
  store i32 0, i32* %2, align 4
  br label %12

12:                                               ; preds = %90, %0
  %13 = load i32, i32* %2, align 4
  %14 = load i32, i32* %1, align 4
  %15 = icmp slt i32 %13, %14
  br i1 %15, label %16, label %93

16:                                               ; preds = %12
  %17 = load i32, i32* %2, align 4
  %18 = sext i32 %17 to i64
  %19 = getelementptr inbounds [999 x %struct.student], [999 x %struct.student]* @stu, i64 0, i64 %18
  %20 = getelementptr inbounds %struct.student, %struct.student* %19, i32 0, i32 0
  %21 = call i32 (i8*, ...) @__isoc99_scanf(i8* getelementptr inbounds ([18 x i8], [18 x i8]* @.str.1, i64 0, i64 0), [30 x i8]* %20, i32* %5, i32* %6, i8* %8, i8* %9, i32* %7)
  %22 = load i32, i32* %2, align 4
  %23 = sext i32 %22 to i64
  %24 = getelementptr inbounds [999 x %struct.student], [999 x %struct.student]* @stu, i64 0, i64 %23
  %25 = getelementptr inbounds %struct.student, %struct.student* %24, i32 0, i32 1
  store i32 0, i32* %25, align 4
  %26 = load i32, i32* %5, align 4
  %27 = icmp sgt i32 %26, 80
  br i1 %27, label %28, label %38

28:                                               ; preds = %16
  %29 = load i32, i32* %7, align 4
  %30 = icmp sgt i32 %29, 0
  br i1 %30, label %31, label %38

31:                                               ; preds = %28
  %32 = load i32, i32* %2, align 4
  %33 = sext i32 %32 to i64
  %34 = getelementptr inbounds [999 x %struct.student], [999 x %struct.student]* @stu, i64 0, i64 %33
  %35 = getelementptr inbounds %struct.student, %struct.student* %34, i32 0, i32 1
  %36 = load i32, i32* %35, align 4
  %37 = add nsw i32 %36, 8000
  store i32 %37, i32* %35, align 4
  br label %38

38:                                               ; preds = %31, %28, %16
  %39 = load i32, i32* %5, align 4
  %40 = icmp sgt i32 %39, 85
  br i1 %40, label %41, label %51

41:                                               ; preds = %38
  %42 = load i32, i32* %6, align 4
  %43 = icmp sgt i32 %42, 80
  br i1 %43, label %44, label %51

44:                                               ; preds = %41
  %45 = load i32, i32* %2, align 4
  %46 = sext i32 %45 to i64
  %47 = getelementptr inbounds [999 x %struct.student], [999 x %struct.student]* @stu, i64 0, i64 %46
  %48 = getelementptr inbounds %struct.student, %struct.student* %47, i32 0, i32 1
  %49 = load i32, i32* %48, align 4
  %50 = add nsw i32 %49, 4000
  store i32 %50, i32* %48, align 4
  br label %51

51:                                               ; preds = %44, %41, %38
  %52 = load i32, i32* %5, align 4
  %53 = icmp sgt i32 %52, 90
  br i1 %53, label %54, label %61

54:                                               ; preds = %51
  %55 = load i32, i32* %2, align 4
  %56 = sext i32 %55 to i64
  %57 = getelementptr inbounds [999 x %struct.student], [999 x %struct.student]* @stu, i64 0, i64 %56
  %58 = getelementptr inbounds %struct.student, %struct.student* %57, i32 0, i32 1
  %59 = load i32, i32* %58, align 4
  %60 = add nsw i32 %59, 2000
  store i32 %60, i32* %58, align 4
  br label %61

61:                                               ; preds = %54, %51
  %62 = load i32, i32* %5, align 4
  %63 = icmp sgt i32 %62, 85
  br i1 %63, label %64, label %75

64:                                               ; preds = %61
  %65 = load i8, i8* %9, align 1
  %66 = sext i8 %65 to i32
  %67 = icmp eq i32 %66, 89
  br i1 %67, label %68, label %75

68:                                               ; preds = %64
  %69 = load i32, i32* %2, align 4
  %70 = sext i32 %69 to i64
  %71 = getelementptr inbounds [999 x %struct.student], [999 x %struct.student]* @stu, i64 0, i64 %70
  %72 = getelementptr inbounds %struct.student, %struct.student* %71, i32 0, i32 1
  %73 = load i32, i32* %72, align 4
  %74 = add nsw i32 %73, 1000
  store i32 %74, i32* %72, align 4
  br label %75

75:                                               ; preds = %68, %64, %61
  %76 = load i32, i32* %6, align 4
  %77 = icmp sgt i32 %76, 80
  br i1 %77, label %78, label %89

78:                                               ; preds = %75
  %79 = load i8, i8* %8, align 1
  %80 = sext i8 %79 to i32
  %81 = icmp eq i32 %80, 89
  br i1 %81, label %82, label %89

82:                                               ; preds = %78
  %83 = load i32, i32* %2, align 4
  %84 = sext i32 %83 to i64
  %85 = getelementptr inbounds [999 x %struct.student], [999 x %struct.student]* @stu, i64 0, i64 %84
  %86 = getelementptr inbounds %struct.student, %struct.student* %85, i32 0, i32 1
  %87 = load i32, i32* %86, align 4
  %88 = add nsw i32 %87, 850
  store i32 %88, i32* %86, align 4
  br label %89

89:                                               ; preds = %82, %78, %75
  br label %90

90:                                               ; preds = %89
  %91 = load i32, i32* %2, align 4
  %92 = add nsw i32 %91, 1
  store i32 %92, i32* %2, align 4
  br label %12

93:                                               ; preds = %12
  store i32 0, i32* %2, align 4
  br label %94

94:                                               ; preds = %125, %93
  %95 = load i32, i32* %2, align 4
  %96 = load i32, i32* %1, align 4
  %97 = icmp slt i32 %95, %96
  br i1 %97, label %98, label %128

98:                                               ; preds = %94
  %99 = load i32, i32* %2, align 4
  %100 = sext i32 %99 to i64
  %101 = getelementptr inbounds [999 x %struct.student], [999 x %struct.student]* @stu, i64 0, i64 %100
  %102 = getelementptr inbounds %struct.student, %struct.student* %101, i32 0, i32 1
  %103 = load i32, i32* %102, align 4
  %104 = load i32, i32* %3, align 4
  %105 = add nsw i32 %104, %103
  store i32 %105, i32* %3, align 4
  %106 = load i32, i32* %4, align 4
  %107 = load i32, i32* %2, align 4
  %108 = sext i32 %107 to i64
  %109 = getelementptr inbounds [999 x %struct.student], [999 x %struct.student]* @stu, i64 0, i64 %108
  %110 = getelementptr inbounds %struct.student, %struct.student* %109, i32 0, i32 1
  %111 = load i32, i32* %110, align 4
  %112 = icmp slt i32 %106, %111
  br i1 %112, label %113, label %124

113:                                              ; preds = %98
  %114 = load i32, i32* %2, align 4
  %115 = sext i32 %114 to i64
  %116 = getelementptr inbounds [999 x %struct.student], [999 x %struct.student]* @stu, i64 0, i64 %115
  %117 = getelementptr inbounds %struct.student, %struct.student* %116, i32 0, i32 1
  %118 = load i32, i32* %117, align 4
  store i32 %118, i32* %4, align 4
  %119 = load i32, i32* %2, align 4
  %120 = sext i32 %119 to i64
  %121 = getelementptr inbounds [999 x %struct.student], [999 x %struct.student]* @stu, i64 0, i64 %120
  %122 = getelementptr inbounds %struct.student, %struct.student* %121, i32 0, i32 0
  %123 = getelementptr inbounds [30 x i8], [30 x i8]* %122, i64 0, i64 0
  store i8* %123, i8** %10, align 8
  br label %124

124:                                              ; preds = %113, %98
  br label %125

125:                                              ; preds = %124
  %126 = load i32, i32* %2, align 4
  %127 = add nsw i32 %126, 1
  store i32 %127, i32* %2, align 4
  br label %94

128:                                              ; preds = %94
  %129 = load i8*, i8** %10, align 8
  %130 = load i32, i32* %4, align 4
  %131 = load i32, i32* %3, align 4
  %132 = call i32 (i8*, ...) @printf(i8* getelementptr inbounds ([9 x i8], [9 x i8]* @.str.2, i64 0, i64 0), i8* %129, i32 %130, i32 %131)
  ret void
}

declare dso_local i32 @__isoc99_scanf(i8*, ...) #1

declare dso_local i32 @printf(i8*, ...) #1


!llvm.module.flags = !{!0}
!llvm.ident = !{!1}

!0 = !{i32 1, !"wchar_size", i32 4}
!1 = !{!"clang version 10.0.0-4ubuntu1 "}
